; Function Attrs: nounwind uwtable
define dso_local void @IsThereOpClassInNamespace(ptr noundef %0, i32 noundef %1, i32 noundef %2) local_unnamed_addr #0 {
  %4 = zext i32 %1 to i64
  %5 = ptrtoint ptr %0 to i64
  %6 = zext i32 %2 to i64
  %7 = tail call zeroext i1 @SearchSysCacheExists(i32 noundef 13, i64 noundef %4, i64 noundef %5, i64 noundef %6, i64 noundef 0) #6
  br i1 %7, label %8, label %14

8:                                                ; preds = %3
  %9 = tail call zeroext i1 @errstart_cold(i32 noundef 21, ptr noundef null) #7
  tail call void @llvm.assume(i1 %9)
  %10 = tail call i32 @errcode(i32 noundef 290948) #6
  %11 = tail call ptr @get_am_name(i32 noundef %1) #6
  %12 = tail call ptr @get_namespace_name(i32 noundef %2) #6
  %13 = tail call i32 (ptr, ...) @errmsg(ptr noundef nonnull @.str.13, ptr noundef %0, ptr noundef %11, ptr noundef %12) #6
  tail call void @errfinish(ptr noundef nonnull @.str.1, i32 noundef 1818, ptr noundef nonnull @__func__.IsThereOpClassInNamespace) #6
  unreachable

14:                                               ; preds = %3
  ret void
}